target datalayout = "e-m:e-p270:32:32-p271:32:32-p272:64:64-i64:64-i128:128-f80:128-n8:16:32:64-S128"
target triple = "x86_64-pc-linux-gnu"

%struct.ident_t = type { i32, i32, i32, i32, ptr }
%"class.LightGBM::Metadata" = type <{ %"class.std::__cxx11::basic_string", i32, i32, i32, [4 x i8], %"class.std::vector", %"class.std::vector", %"class.std::vector.3", %"class.std::vector.8", %"class.std::vector.3", %"class.std::vector", i32, [4 x i8], i64, %"class.std::vector.13", %"class.std::vector.3", %"class.std::mutex", i8, i8, i8, i8, [4 x i8] }>
%"class.std::__cxx11::basic_string" = type { %"struct.std::__cxx11::basic_string<char>::_Alloc_hider", i64, %union.anon }
%"struct.std::__cxx11::basic_string<char>::_Alloc_hider" = type { ptr }
%union.anon = type { i64, [8 x i8] }
%"class.std::vector.8" = type { %"struct.std::_Vector_base.9" }
%"struct.std::_Vector_base.9" = type { %"struct.std::_Vector_base<std::__cxx11::basic_string<char>, std::allocator<std::__cxx11::basic_string<char>>>::_Vector_impl" }
%"struct.std::_Vector_base<std::__cxx11::basic_string<char>, std::allocator<std::__cxx11::basic_string<char>>>::_Vector_impl" = type { %"struct.std::_Vector_base<std::__cxx11::basic_string<char>, std::allocator<std::__cxx11::basic_string<char>>>::_Vector_impl_data" }
%"struct.std::_Vector_base<std::__cxx11::basic_string<char>, std::allocator<std::__cxx11::basic_string<char>>>::_Vector_impl_data" = type { ptr, ptr, ptr }
%"class.std::vector" = type { %"struct.std::_Vector_base" }
%"struct.std::_Vector_base" = type { %"struct.std::_Vector_base<float, std::allocator<float>>::_Vector_impl" }
%"struct.std::_Vector_base<float, std::allocator<float>>::_Vector_impl" = type { %"struct.std::_Vector_base<float, std::allocator<float>>::_Vector_impl_data" }
%"struct.std::_Vector_base<float, std::allocator<float>>::_Vector_impl_data" = type { ptr, ptr, ptr }
%"class.std::vector.13" = type { %"struct.std::_Vector_base.14" }
%"struct.std::_Vector_base.14" = type { %"struct.std::_Vector_base<double, std::allocator<double>>::_Vector_impl" }
%"struct.std::_Vector_base<double, std::allocator<double>>::_Vector_impl" = type { %"struct.std::_Vector_base<double, std::allocator<double>>::_Vector_impl_data" }
%"struct.std::_Vector_base<double, std::allocator<double>>::_Vector_impl_data" = type { ptr, ptr, ptr }
%"class.std::vector.3" = type { %"struct.std::_Vector_base.4" }
%"struct.std::_Vector_base.4" = type { %"struct.std::_Vector_base<int, std::allocator<int>>::_Vector_impl" }
%"struct.std::_Vector_base<int, std::allocator<int>>::_Vector_impl" = type { %"struct.std::_Vector_base<int, std::allocator<int>>::_Vector_impl_data" }
%"struct.std::_Vector_base<int, std::allocator<int>>::_Vector_impl_data" = type { ptr, ptr, ptr }
%"class.std::mutex" = type { %"class.std::__mutex_base" }
%"class.std::__mutex_base" = type { %union.pthread_mutex_t }
%union.pthread_mutex_t = type { %struct.__pthread_mutex_s }
%struct.__pthread_mutex_s = type { i32, i32, i32, i32, i32, i16, i16, %struct.__pthread_internal_list }
%struct.__pthread_internal_list = type { ptr, ptr }

@1 = private unnamed_addr constant %struct.ident_t { i32 0, i32 514, i32 0, i32 22, ptr @0 }, align 8

; Function Attrs: mustprogress nounwind uwtable
define linkonce_odr noundef nonnull align 4 dereferenceable(4) ptr @_ZNSt6vectorIfSaIfEEixEm(ptr noundef nonnull align 8 dereferenceable(24) %0, i64 noundef %1) #4 comdat align 2 {
  %3 = alloca ptr, align 8
  %4 = alloca i64, align 8
  store ptr %0, ptr %3, align 8, !tbaa !48
  store i64 %1, ptr %4, align 8, !tbaa !64
  %5 = load ptr, ptr %3, align 8
  %6 = getelementptr inbounds nuw %"struct.std::_Vector_base", ptr %5, i32 0, i32 0
  %7 = getelementptr inbounds nuw %"struct.std::_Vector_base<float, std::allocator<float>>::_Vector_impl_data", ptr %6, i32 0, i32 0
  %8 = load ptr, ptr %7, align 8, !tbaa !115
  %9 = load i64, ptr %4, align 8, !tbaa !64
  %10 = getelementptr inbounds nuw float, ptr %8, i64 %9
  ret ptr %10
}

; Function Attrs: mustprogress nounwind uwtable
define linkonce_odr noundef nonnull align 4 dereferenceable(4) ptr @_ZNKSt6vectorIfSaIfEEixEm(ptr noundef nonnull align 8 dereferenceable(24) %0, i64 noundef %1) #4 comdat align 2 {
  %3 = alloca ptr, align 8
  %4 = alloca i64, align 8
  store ptr %0, ptr %3, align 8, !tbaa !48
  store i64 %1, ptr %4, align 8, !tbaa !64
  %5 = load ptr, ptr %3, align 8
  %6 = getelementptr inbounds nuw %"struct.std::_Vector_base", ptr %5, i32 0, i32 0
  %7 = getelementptr inbounds nuw %"struct.std::_Vector_base<float, std::allocator<float>>::_Vector_impl_data", ptr %6, i32 0, i32 0
  %8 = load ptr, ptr %7, align 8, !tbaa !115
  %9 = load i64, ptr %4, align 8, !tbaa !64
  %10 = getelementptr inbounds nuw float, ptr %8, i64 %9
  ret ptr %10
}

; Function Attrs: noinline norecurse nounwind uwtable
define internal void @_ZN8LightGBM8Metadata4InitERKS0_PKii.omp_outlined.12(ptr noalias noundef %0, ptr noalias noundef %1, ptr noundef nonnull align 4 dereferenceable(4) %2, ptr noundef %3, ptr noundef nonnull align 8 dereferenceable(300) %4, ptr noundef nonnull align 8 dereferenceable(8) %5) #19 {
  %7 = alloca ptr, align 8
  %8 = alloca ptr, align 8
  %9 = alloca ptr, align 8
  %10 = alloca ptr, align 8
  %11 = alloca ptr, align 8
  %12 = alloca ptr, align 8
  %13 = alloca ptr, align 8
  %14 = alloca i32, align 4
  %15 = alloca i32, align 4
  %16 = alloca i32, align 4
  %17 = alloca i32, align 4
  %18 = alloca i32, align 4
  %19 = alloca i32, align 4
  %20 = alloca i32, align 4
  %21 = alloca i32, align 4
  %22 = alloca i32, align 4
  store ptr %0, ptr %7, align 8, !tbaa !119
  store ptr %1, ptr %8, align 8, !tbaa !119
  store ptr %2, ptr %9, align 8, !tbaa !119
  store ptr %3, ptr %10, align 8, !tbaa !4
  store ptr %4, ptr %11, align 8, !tbaa !4
  store ptr %5, ptr %12, align 8, !tbaa !155
  %23 = load ptr, ptr %9, align 8, !tbaa !119
  %24 = load ptr, ptr %10, align 8, !tbaa !4
  %25 = load ptr, ptr %11, align 8, !tbaa !4
  %26 = load ptr, ptr %12, align 8, !tbaa !155
  store ptr %25, ptr %13, align 8
  call void @llvm.lifetime.start.p0(i64 4, ptr %14) #3
  call void @llvm.lifetime.start.p0(i64 4, ptr %15) #3
  %27 = load i32, ptr %23, align 4, !tbaa !103
  store i32 %27, ptr %15, align 4, !tbaa !103
  call void @llvm.lifetime.start.p0(i64 4, ptr %16) #3
  %28 = load i32, ptr %15, align 4, !tbaa !103
  %29 = sub nsw i32 %28, 0
  %30 = sdiv i32 %29, 1
  %31 = sub nsw i32 %30, 1
  store i32 %31, ptr %16, align 4, !tbaa !103
  call void @llvm.lifetime.start.p0(i64 4, ptr %17) #3
  store i32 0, ptr %17, align 4, !tbaa !103
  call void @llvm.lifetime.end.p0(i64 4, ptr %17) #3
  %32 = load i32, ptr %15, align 4, !tbaa !103
  %33 = icmp slt i32 0, %32
  br i1 %33, label %34, label %92

34:                                               ; preds = %6
  call void @llvm.lifetime.start.p0(i64 4, ptr %18) #3
  store i32 0, ptr %18, align 4, !tbaa !103
  call void @llvm.lifetime.start.p0(i64 4, ptr %19) #3
  %35 = load i32, ptr %16, align 4, !tbaa !103
  store i32 %35, ptr %19, align 4, !tbaa !103
  call void @llvm.lifetime.start.p0(i64 4, ptr %20) #3
  store i32 1, ptr %20, align 4, !tbaa !103
  call void @llvm.lifetime.start.p0(i64 4, ptr %21) #3
  store i32 0, ptr %21, align 4, !tbaa !103
  call void @llvm.lifetime.start.p0(i64 4, ptr %22) #3
  %36 = load ptr, ptr %7, align 8
  %37 = load i32, ptr %36, align 4, !tbaa !103
  call void @__kmpc_for_static_init_4(ptr @1, i32 %37, i32 33, ptr %21, ptr %18, ptr %19, ptr %20, i32 1, i32 512)
  br label %38

38:                                               ; preds = %82, %34
  %39 = load i32, ptr %19, align 4, !tbaa !103
  %40 = load i32, ptr %16, align 4, !tbaa !103
  %41 = icmp sgt i32 %39, %40
  br i1 %41, label %42, label %44

42:                                               ; preds = %38
  %43 = load i32, ptr %16, align 4, !tbaa !103
  br label %46

44:                                               ; preds = %38
  %45 = load i32, ptr %19, align 4, !tbaa !103
  br label %46

46:                                               ; preds = %44, %42
  %47 = phi i32 [ %43, %42 ], [ %45, %44 ]
  store i32 %47, ptr %19, align 4, !tbaa !103
  %48 = load i32, ptr %18, align 4, !tbaa !103
  store i32 %48, ptr %14, align 4, !tbaa !103
  %49 = load i32, ptr %14, align 4, !tbaa !103
  %50 = load i32, ptr %19, align 4, !tbaa !103
  %51 = icmp sle i32 %49, %50
  br i1 %51, label %53, label %52

52:                                               ; preds = %46
  br label %89

53:                                               ; preds = %46
  br label %54

54:                                               ; preds = %78, %53
  %55 = load i32, ptr %14, align 4, !tbaa !103
  %56 = load i32, ptr %19, align 4, !tbaa !103
  %57 = icmp sle i32 %55, %56
  br i1 %57, label %59, label %58

58:                                               ; preds = %54
  br label %81

59:                                               ; preds = %54
  %60 = load i32, ptr %14, align 4, !tbaa !103
  %61 = mul nsw i32 %60, 1
  %62 = add nsw i32 0, %61
  store i32 %62, ptr %22, align 4, !tbaa !103
  %63 = load ptr, ptr %13, align 8, !tbaa !4
  %64 = getelementptr inbounds nuw %"class.LightGBM::Metadata", ptr %63, i32 0, i32 6
  %65 = load ptr, ptr %26, align 8, !tbaa !119
  %66 = load i32, ptr %22, align 4, !tbaa !103
  %67 = sext i32 %66 to i64
  %68 = getelementptr inbounds i32, ptr %65, i64 %67
  %69 = load i32, ptr %68, align 4, !tbaa !103
  %70 = sext i32 %69 to i64
  %71 = call noundef nonnull align 4 dereferenceable(4) ptr @_ZNKSt6vectorIfSaIfEEixEm(ptr noundef nonnull align 8 dereferenceable(24) %64, i64 noundef %70) #3
  %72 = load float, ptr %71, align 4, !tbaa !107
  %73 = getelementptr inbounds nuw %"class.LightGBM::Metadata", ptr %24, i32 0, i32 6
  %74 = load i32, ptr %22, align 4, !tbaa !103
  %75 = sext i32 %74 to i64
  %76 = call noundef nonnull align 4 dereferenceable(4) ptr @_ZNSt6vectorIfSaIfEEixEm(ptr noundef nonnull align 8 dereferenceable(24) %73, i64 noundef %75) #3
  store float %72, ptr %76, align 4, !tbaa !107
  br label %77

77:                                               ; preds = %59
  br label %78

78:                                               ; preds = %77
  %79 = load i32, ptr %14, align 4, !tbaa !103
  %80 = add nsw i32 %79, 1
  store i32 %80, ptr %14, align 4, !tbaa !103
  br label %54

81:                                               ; preds = %58
  br label %82

82:                                               ; preds = %81
  %83 = load i32, ptr %18, align 4, !tbaa !103
  %84 = load i32, ptr %20, align 4, !tbaa !103
  %85 = add nsw i32 %83, %84
  store i32 %85, ptr %18, align 4, !tbaa !103
  %86 = load i32, ptr %19, align 4, !tbaa !103
  %87 = load i32, ptr %20, align 4, !tbaa !103
  %88 = add nsw i32 %86, %87
  store i32 %88, ptr %19, align 4, !tbaa !103
  br label %38

89:                                               ; preds = %52
  %90 = load ptr, ptr %7, align 8
  %91 = load i32, ptr %90, align 4, !tbaa !103
  call void @__kmpc_for_static_fini(ptr @1, i32 %91)
  call void @llvm.lifetime.end.p0(i64 4, ptr %22) #3
  call void @llvm.lifetime.end.p0(i64 4, ptr %21) #3
  call void @llvm.lifetime.end.p0(i64 4, ptr %20) #3
  call void @llvm.lifetime.end.p0(i64 4, ptr %19) #3
  call void @llvm.lifetime.end.p0(i64 4, ptr %18) #3
  br label %92

92:                                               ; preds = %89, %6
  call void @llvm.lifetime.end.p0(i64 4, ptr %16) #3
  call void @llvm.lifetime.end.p0(i64 4, ptr %15) #3
  call void @llvm.lifetime.end.p0(i64 4, ptr %14) #3
  ret void
}