; Function Attrs: noinline norecurse nounwind uwtable
define internal void @_ZN8LightGBM8Metadata4InitERKS0_PKii.omp_outlined.12(ptr noalias noundef readonly captures(none) %0, ptr noalias readnone captures(none) %1, ptr noundef nonnull readonly align 4 captures(none) dereferenceable(4) %2, ptr noundef readonly captures(none) %3, ptr noundef nonnull readonly align 8 captures(none) dereferenceable(300) %4, ptr noundef nonnull readonly align 8 captures(none) dereferenceable(8) %5) #19 {
  %7 = alloca i32, align 4
  %8 = alloca i32, align 4
  %9 = alloca i32, align 4
  %10 = alloca i32, align 4
  %11 = load i32, ptr %2, align 4, !tbaa !59
  %12 = add nsw i32 %11, -1
  %13 = icmp sgt i32 %11, 0
  br i1 %13, label %14, label %37

14:                                               ; preds = %6
  call void @llvm.lifetime.start.p0(i64 4, ptr nonnull %7) #20
  store i32 0, ptr %7, align 4, !tbaa !59
  call void @llvm.lifetime.start.p0(i64 4, ptr nonnull %8) #20
  store i32 %12, ptr %8, align 4, !tbaa !59
  call void @llvm.lifetime.start.p0(i64 4, ptr nonnull %9) #20
  store i32 1, ptr %9, align 4, !tbaa !59
  call void @llvm.lifetime.start.p0(i64 4, ptr nonnull %10) #20
  store i32 0, ptr %10, align 4, !tbaa !59
  %15 = load i32, ptr %0, align 4, !tbaa !59
  call void @__kmpc_for_static_init_4(ptr nonnull @1, i32 %15, i32 33, ptr nonnull %10, ptr nonnull %7, ptr nonnull %8, ptr nonnull %9, i32 1, i32 512)
  %.promoted = load i32, ptr %8, align 4, !tbaa !59
  %.promoted20 = load i32, ptr %7, align 4, !tbaa !59
  %16 = call i32 @llvm.smin.i32(i32 %.promoted, i32 %12)
  store i32 %16, ptr %8, align 4, !tbaa !59
  %.not21 = icmp sgt i32 %.promoted20, %16
  br i1 %.not21, label %._crit_edge, label %.preheader.lr.ph

.preheader.lr.ph:                                 ; preds = %14
  %17 = getelementptr inbounds nuw i8, ptr %4, i64 72
  %18 = load ptr, ptr %5, align 8, !tbaa !100
  %19 = load ptr, ptr %17, align 8, !tbaa !70
  %20 = getelementptr inbounds nuw i8, ptr %3, i64 72
  %21 = load ptr, ptr %20, align 8, !tbaa !70
  %22 = load i32, ptr %9, align 4, !tbaa !59
  %23 = sext i32 %.promoted20 to i64
  %24 = sext i32 %22 to i64
  br label %.preheader

.preheader:                                       ; preds = %.preheader.lr.ph, %34
  %indvars.iv = phi i64 [ %23, %.preheader.lr.ph ], [ %indvars.iv.next, %34 ]
  %25 = phi i32 [ %16, %.preheader.lr.ph ], [ %36, %34 ]
  %26 = sext i32 %25 to i64
  br label %27

27:                                               ; preds = %.preheader, %27
  %indvars.iv22 = phi i64 [ %indvars.iv, %.preheader ], [ %indvars.iv.next23, %27 ]
  %28 = getelementptr inbounds i32, ptr %18, i64 %indvars.iv22
  %29 = load i32, ptr %28, align 4, !tbaa !59
  %30 = sext i32 %29 to i64
  %31 = getelementptr inbounds nuw float, ptr %19, i64 %30
  %32 = load float, ptr %31, align 4, !tbaa !68
  %33 = getelementptr inbounds nuw float, ptr %21, i64 %indvars.iv22
  store float %32, ptr %33, align 4, !tbaa !68
  %indvars.iv.next23 = add nsw i64 %indvars.iv22, 1
  %.not18.not = icmp slt i64 %indvars.iv22, %26
  br i1 %.not18.not, label %27, label %34

34:                                               ; preds = %27
  %indvars.iv.next = add i64 %indvars.iv, %24
  %indvars = trunc i64 %indvars.iv.next to i32
  store i32 %indvars, ptr %7, align 4, !tbaa !59
  %35 = add nsw i32 %22, %25
  %36 = call i32 @llvm.smin.i32(i32 %35, i32 %12)
  store i32 %36, ptr %8, align 4, !tbaa !59
  %.not = icmp slt i32 %36, %indvars
  br i1 %.not, label %._crit_edge, label %.preheader

._crit_edge:                                      ; preds = %34, %14
  call void @__kmpc_for_static_fini(ptr nonnull @1, i32 %15)
  call void @llvm.lifetime.end.p0(i64 4, ptr nonnull %10) #20
  call void @llvm.lifetime.end.p0(i64 4, ptr nonnull %9) #20
  call void @llvm.lifetime.end.p0(i64 4, ptr nonnull %8) #20
  call void @llvm.lifetime.end.p0(i64 4, ptr nonnull %7) #20
  br label %37

37:                                               ; preds = %._crit_edge, %6
  ret void
}